; Function Attrs: nofree norecurse nosync nounwind memory(argmem: readwrite) uwtable
define internal void @Float32_To_Int16(ptr noundef writeonly captures(none) %0, i32 noundef %1, ptr noundef readonly captures(none) %2, i32 noundef %3, i32 noundef %4, ptr readnone captures(none) %5) #2 {
  %.not11 = icmp eq i32 %4, 0
  br i1 %.not11, label %._crit_edge, label %.lr.ph

.lr.ph:                                           ; preds = %6
  %7 = sext i32 %3 to i64
  %8 = sext i32 %1 to i64
  br label %9

9:                                                ; preds = %.lr.ph, %9
  %.014 = phi i32 [ %4, %.lr.ph ], [ %10, %9 ]
  %.0913 = phi ptr [ %0, %.lr.ph ], [ %15, %9 ]
  %.01012 = phi ptr [ %2, %.lr.ph ], [ %14, %9 ]
  %10 = add i32 %.014, -1
  %11 = load float, ptr %.01012, align 4, !tbaa !68
  %12 = fmul float %11, 3.276700e+04
  %13 = fptosi float %12 to i16
  store i16 %13, ptr %.0913, align 2, !tbaa !81
  %14 = getelementptr inbounds float, ptr %.01012, i64 %7
  %15 = getelementptr inbounds i16, ptr %.0913, i64 %8
  %.not = icmp eq i32 %10, 0
  br i1 %.not, label %._crit_edge, label %9, !llvm.loop !83

._crit_edge:                                      ; preds = %9, %6
  ret void
}